; ModuleID = '11/276.c'
source_filename = "11/276.c"
target datalayout = "e-m:e-p270:32:32-p271:32:32-p272:64:64-i64:64-f80:128-n8:16:32:64-S128"
target triple = "x86_64-pc-linux-gnu"

@.str = private unnamed_addr constant [7 x i8] c"%d%d%d\00", align 1
@.str.1 = private unnamed_addr constant [4 x i8] c"%d\0A\00", align 1

; Function Attrs: noinline nounwind uwtable
define dso_local i32 @main() #0 {
  %1 = alloca i32, align 4
  %2 = alloca [5 x i32], align 16
  %3 = alloca [5 x i32], align 16
  %4 = alloca [5 x i32], align 16
  %5 = alloca i32, align 4
  %6 = alloca i32, align 4
  %7 = alloca i32, align 4
  store i32 0, i32* %1, align 4
  store i32 0, i32* %7, align 4
  br label %8

8:                                                ; preds = %22, %0
  %9 = load i32, i32* %7, align 4
  %10 = icmp sle i32 %9, 4
  br i1 %10, label %11, label %25

11:                                               ; preds = %8
  %12 = load i32, i32* %7, align 4
  %13 = sext i32 %12 to i64
  %14 = getelementptr inbounds [5 x i32], [5 x i32]* %2, i64 0, i64 %13
  %15 = load i32, i32* %7, align 4
  %16 = sext i32 %15 to i64
  %17 = getelementptr inbounds [5 x i32], [5 x i32]* %3, i64 0, i64 %16
  %18 = load i32, i32* %7, align 4
  %19 = sext i32 %18 to i64
  %20 = getelementptr inbounds [5 x i32], [5 x i32]* %4, i64 0, i64 %19
  %21 = call i32 (i8*, ...) @__isoc99_scanf(i8* getelementptr inbounds ([7 x i8], [7 x i8]* @.str, i64 0, i64 0), i32* %14, i32* %17, i32* %20)
  br label %22

22:                                               ; preds = %11
  %23 = load i32, i32* %7, align 4
  %24 = add nsw i32 %23, 1
  store i32 %24, i32* %7, align 4
  br label %8

25:                                               ; preds = %8
  store i32 0, i32* %7, align 4
  br label %26

26:                                               ; preds = %83, %25
  %27 = load i32, i32* %7, align 4
  %28 = icmp sle i32 %27, 4
  br i1 %28, label %29, label %86

29:                                               ; preds = %26
  %30 = load i32, i32* %7, align 4
  %31 = sext i32 %30 to i64
  %32 = getelementptr inbounds [5 x i32], [5 x i32]* %3, i64 0, i64 %31
  %33 = load i32, i32* %32, align 4
  switch i32 %33, label %46 [
    i32 1, label %34
    i32 2, label %35
    i32 3, label %36
    i32 4, label %37
    i32 5, label %38
    i32 6, label %39
    i32 7, label %40
    i32 8, label %41
    i32 9, label %42
    i32 10, label %43
    i32 11, label %44
    i32 12, label %45
  ]

34:                                               ; preds = %29
  store i32 0, i32* %5, align 4
  br label %46

35:                                               ; preds = %29
  store i32 31, i32* %5, align 4
  br label %46

36:                                               ; preds = %29
  store i32 59, i32* %5, align 4
  br label %46

37:                                               ; preds = %29
  store i32 90, i32* %5, align 4
  br label %46

38:                                               ; preds = %29
  store i32 120, i32* %5, align 4
  br label %46

39:                                               ; preds = %29
  store i32 151, i32* %5, align 4
  br label %46

40:                                               ; preds = %29
  store i32 181, i32* %5, align 4
  br label %46

41:                                               ; preds = %29
  store i32 212, i32* %5, align 4
  br label %46

42:                                               ; preds = %29
  store i32 243, i32* %5, align 4
  br label %46

43:                                               ; preds = %29
  store i32 273, i32* %5, align 4
  br label %46

44:                                               ; preds = %29
  store i32 304, i32* %5, align 4
  br label %46

45:                                               ; preds = %29
  store i32 334, i32* %5, align 4
  br label %46

46:                                               ; preds = %29, %45, %44, %43, %42, %41, %40, %39, %38, %37, %36, %35, %34
  %47 = load i32, i32* %7, align 4
  %48 = sext i32 %47 to i64
  %49 = getelementptr inbounds [5 x i32], [5 x i32]* %2, i64 0, i64 %48
  %50 = load i32, i32* %49, align 4
  %51 = srem i32 %50, 400
  %52 = icmp eq i32 %51, 0
  br i1 %52, label %67, label %53

53:                                               ; preds = %46
  %54 = load i32, i32* %7, align 4
  %55 = sext i32 %54 to i64
  %56 = getelementptr inbounds [5 x i32], [5 x i32]* %2, i64 0, i64 %55
  %57 = load i32, i32* %56, align 4
  %58 = srem i32 %57, 4
  %59 = icmp eq i32 %58, 0
  br i1 %59, label %60, label %74

60:                                               ; preds = %53
  %61 = load i32, i32* %7, align 4
  %62 = sext i32 %61 to i64
  %63 = getelementptr inbounds [5 x i32], [5 x i32]* %2, i64 0, i64 %62
  %64 = load i32, i32* %63, align 4
  %65 = srem i32 %64, 100
  %66 = icmp ne i32 %65, 0
  br i1 %66, label %67, label %74

67:                                               ; preds = %60, %46
  %68 = load i32, i32* %5, align 4
  %69 = icmp sgt i32 %68, 31
  br i1 %69, label %70, label %73

70:                                               ; preds = %67
  %71 = load i32, i32* %5, align 4
  %72 = add nsw i32 %71, 1
  store i32 %72, i32* %5, align 4
  br label %73

73:                                               ; preds = %70, %67
  br label %74

74:                                               ; preds = %73, %60, %53
  %75 = load i32, i32* %5, align 4
  %76 = load i32, i32* %7, align 4
  %77 = sext i32 %76 to i64
  %78 = getelementptr inbounds [5 x i32], [5 x i32]* %4, i64 0, i64 %77
  %79 = load i32, i32* %78, align 4
  %80 = add nsw i32 %75, %79
  store i32 %80, i32* %6, align 4
  %81 = load i32, i32* %6, align 4
  %82 = call i32 (i8*, ...) @printf(i8* getelementptr inbounds ([4 x i8], [4 x i8]* @.str.1, i64 0, i64 0), i32 %81)
  br label %83

83:                                               ; preds = %74
  %84 = load i32, i32* %7, align 4
  %85 = add nsw i32 %84, 1
  store i32 %85, i32* %7, align 4
  br label %26

86:                                               ; preds = %26
  ret i32 0
}

declare dso_local i32 @__isoc99_scanf(i8*, ...) #1

declare dso_local i32 @printf(i8*, ...) #1


!llvm.module.flags = !{!0}
!llvm.ident = !{!1}

!0 = !{i32 1, !"wchar_size", i32 4}
!1 = !{!"clang version 10.0.0-4ubuntu1 "}
